target datalayout = "e-m:e-p270:32:32-p271:32:32-p272:64:64-i64:64-i128:128-f80:128-n8:16:32:64-S128"
target triple = "x86_64-pc-linux-gnu"

%struct.tm = type { i32, i32, i32, i32, i32, i32, i32, i32, i32, i64, ptr }

@.str.123 = private unnamed_addr constant [18 x i8] c"%Y-%m-%dT%H:%M:%S\00", align 1
@.str.124 = private unnamed_addr constant [7 x i8] c".%03dZ\00", align 1

; Function Attrs: nounwind uwtable
define internal void @format_date(ptr noundef %0, i32 noundef %1, i64 noundef %2) #0 {
  %4 = alloca ptr, align 8
  %5 = alloca i32, align 4
  %6 = alloca i64, align 8
  %7 = alloca ptr, align 8
  %8 = alloca %struct.tm, align 8
  %9 = alloca i64, align 8
  %10 = alloca i64, align 8
  %11 = alloca i32, align 4
  %12 = alloca i32, align 4
  %13 = alloca i32, align 4
  store ptr %0, ptr %4, align 8, !tbaa !116
  store i32 %1, ptr %5, align 4, !tbaa !28
  store i64 %2, ptr %6, align 8, !tbaa !67
  call void @llvm.lifetime.start.p0(i64 8, ptr %7) #13
  call void @llvm.lifetime.start.p0(i64 56, ptr %8) #13
  call void @llvm.lifetime.start.p0(i64 8, ptr %9) #13
  %14 = load i64, ptr %6, align 8, !tbaa !67
  %15 = sdiv i64 %14, 1000
  store i64 %15, ptr %9, align 8, !tbaa !67
  call void @llvm.lifetime.start.p0(i64 8, ptr %10) #13
  %16 = load i64, ptr %9, align 8, !tbaa !67
  %17 = sdiv i64 %16, 1000
  store i64 %17, ptr %10, align 8, !tbaa !67
  call void @llvm.lifetime.start.p0(i64 4, ptr %11) #13
  %18 = load i64, ptr %9, align 8, !tbaa !67
  %19 = load i64, ptr %10, align 8, !tbaa !67
  %20 = mul nsw i64 %19, 1000
  %21 = sub nsw i64 %18, %20
  %22 = trunc i64 %21 to i32
  store i32 %22, ptr %11, align 4, !tbaa !28
  %23 = call ptr @gmtime_r(ptr noundef %10, ptr noundef %8) #13
  store ptr %23, ptr %7, align 8, !tbaa !220
  %24 = load ptr, ptr %7, align 8, !tbaa !220
  %25 = icmp ne ptr %24, null
  br i1 %25, label %26, label %53

26:                                               ; preds = %3
  call void @llvm.lifetime.start.p0(i64 4, ptr %12) #13
  %27 = load ptr, ptr %4, align 8, !tbaa !116
  %28 = load i32, ptr %5, align 4, !tbaa !28
  %29 = sext i32 %28 to i64
  %30 = load ptr, ptr %7, align 8, !tbaa !220
  %31 = call i64 @strftime(ptr noundef %27, i64 noundef %29, ptr noundef @.str.123, ptr noundef %30) #13
  %32 = icmp ne i64 %31, 0
  br i1 %32, label %36, label %33

33:                                               ; preds = %26
  %34 = load ptr, ptr %4, align 8, !tbaa !116
  %35 = getelementptr inbounds i8, ptr %34, i64 0
  store i8 0, ptr %35, align 1, !tbaa !66
  store i32 1, ptr %13, align 4
  br label %50

36:                                               ; preds = %26
  %37 = load ptr, ptr %4, align 8, !tbaa !116
  %38 = call i64 @strlen(ptr noundef %37) #16
  %39 = trunc i64 %38 to i32
  store i32 %39, ptr %12, align 4, !tbaa !28
  %40 = load ptr, ptr %4, align 8, !tbaa !116
  %41 = load i32, ptr %12, align 4, !tbaa !28
  %42 = sext i32 %41 to i64
  %43 = getelementptr inbounds i8, ptr %40, i64 %42
  %44 = load i32, ptr %5, align 4, !tbaa !28
  %45 = load i32, ptr %12, align 4, !tbaa !28
  %46 = sub nsw i32 %44, %45
  %47 = sext i32 %46 to i64
  %48 = load i32, ptr %11, align 4, !tbaa !28
  %49 = call i32 (ptr, i64, ptr, ...) @snprintf(ptr noundef %43, i64 noundef %47, ptr noundef @.str.124, i32 noundef %48) #13
  store i32 0, ptr %13, align 4
  br label %50

50:                                               ; preds = %36, %33
  call void @llvm.lifetime.end.p0(i64 4, ptr %12) #13
  %51 = load i32, ptr %13, align 4
  switch i32 %51, label %54 [
    i32 0, label %52
  ]

52:                                               ; preds = %50
  br label %53

53:                                               ; preds = %52, %3
  store i32 0, ptr %13, align 4
  br label %54

54:                                               ; preds = %53, %50
  call void @llvm.lifetime.end.p0(i64 4, ptr %11) #13
  call void @llvm.lifetime.end.p0(i64 8, ptr %10) #13
  call void @llvm.lifetime.end.p0(i64 8, ptr %9) #13
  call void @llvm.lifetime.end.p0(i64 56, ptr %8) #13
  call void @llvm.lifetime.end.p0(i64 8, ptr %7) #13
  %55 = load i32, ptr %13, align 4
  switch i32 %55, label %57 [
    i32 0, label %56
    i32 1, label %56
  ]

56:                                               ; preds = %54, %54
  ret void

57:                                               ; preds = %54
  unreachable
}