; Function Attrs: nounwind uwtable
define internal fastcc void @format_date(ptr noundef %0, i64 noundef %1) unnamed_addr #0 {
  %3 = alloca %struct.tm, align 8
  %4 = alloca i64, align 8
  call void @llvm.lifetime.start.p0(i64 56, ptr nonnull %3) #15
  %5 = sdiv i64 %1, 1000
  call void @llvm.lifetime.start.p0(i64 8, ptr nonnull %4) #15
  %6 = sdiv i64 %1, 1000000
  store i64 %6, ptr %4, align 8, !tbaa !60
  %.neg = mul i64 %6, 4294966296
  %7 = add i64 %.neg, %5
  %8 = trunc i64 %7 to i32
  %9 = call ptr @gmtime_r(ptr noundef nonnull %4, ptr noundef nonnull %3) #15
  %.not = icmp eq ptr %9, null
  br i1 %.not, label %19, label %10

10:                                               ; preds = %2
  %11 = call i64 @strftime(ptr noundef %0, i64 noundef 100, ptr noundef nonnull @.str.123, ptr noundef nonnull %9) #15
  %.not15.not = icmp eq i64 %11, 0
  br i1 %.not15.not, label %12, label %13

12:                                               ; preds = %10
  store i8 0, ptr %0, align 1, !tbaa !74
  br label %19

13:                                               ; preds = %10
  %14 = call i64 @strlen(ptr noundef nonnull dereferenceable(1) %0) #16
  %sext = shl i64 %14, 32
  %15 = ashr exact i64 %sext, 32
  %16 = getelementptr inbounds i8, ptr %0, i64 %15
  %sext16 = sub i64 429496729600, %sext
  %17 = ashr exact i64 %sext16, 32
  %18 = call i32 (ptr, i64, ptr, ...) @snprintf(ptr noundef nonnull %16, i64 noundef %17, ptr noundef nonnull @.str.124, i32 noundef %8) #15
  br label %19

19:                                               ; preds = %12, %13, %2
  call void @llvm.lifetime.end.p0(i64 8, ptr nonnull %4) #15
  call void @llvm.lifetime.end.p0(i64 56, ptr nonnull %3) #15
  ret void
}